target datalayout = "e-m:e-p270:32:32-p271:32:32-p272:64:64-i64:64-i128:128-f80:128-n8:16:32:64-S128"
target triple = "x86_64-pc-linux-gnu"

%struct.kvs_bucket = type { ptr, i32, i32 }

@hash_size = internal global i32 0, align 4
@kvs_hash = internal global ptr null, align 8

; Function Attrs: nounwind uwtable
define dso_local i32 @kvs_clear() #0 {
  %1 = alloca ptr, align 8
  %2 = alloca i32, align 4
  %3 = alloca i32, align 4
  call void @llvm.lifetime.start.p0(i64 8, ptr %1) #7
  call void @llvm.lifetime.start.p0(i64 4, ptr %2) #7
  call void @llvm.lifetime.start.p0(i64 4, ptr %3) #7
  store i32 0, ptr %2, align 4
  br label %4

4:                                                ; preds = %39, %0
  %5 = load i32, ptr %2, align 4
  %6 = load i32, ptr @hash_size, align 4
  %7 = icmp ult i32 %5, %6
  br i1 %7, label %8, label %42

8:                                                ; preds = %4
  %9 = load ptr, ptr @kvs_hash, align 8
  %10 = load i32, ptr %2, align 4
  %11 = sext i32 %10 to i64
  %12 = getelementptr inbounds %struct.kvs_bucket, ptr %9, i64 %11
  store ptr %12, ptr %1, align 8
  store i32 0, ptr %3, align 4
  br label %13

13:                                               ; preds = %35, %8
  %14 = load i32, ptr %3, align 4
  %15 = load ptr, ptr %1, align 8
  %16 = getelementptr inbounds nuw %struct.kvs_bucket, ptr %15, i32 0, i32 1
  %17 = load i32, ptr %16, align 8
  %18 = icmp ult i32 %14, %17
  br i1 %18, label %19, label %38

19:                                               ; preds = %13
  %20 = load ptr, ptr %1, align 8
  %21 = getelementptr inbounds nuw %struct.kvs_bucket, ptr %20, i32 0, i32 0
  %22 = load ptr, ptr %21, align 8
  %23 = load i32, ptr %3, align 4
  %24 = mul nsw i32 %23, 2
  %25 = sext i32 %24 to i64
  %26 = getelementptr inbounds ptr, ptr %22, i64 %25
  call void @slurm_xfree(ptr noundef %26)
  %27 = load ptr, ptr %1, align 8
  %28 = getelementptr inbounds nuw %struct.kvs_bucket, ptr %27, i32 0, i32 0
  %29 = load ptr, ptr %28, align 8
  %30 = load i32, ptr %3, align 4
  %31 = mul nsw i32 %30, 2
  %32 = add nsw i32 %31, 1
  %33 = sext i32 %32 to i64
  %34 = getelementptr inbounds ptr, ptr %29, i64 %33
  call void @slurm_xfree(ptr noundef %34)
  br label %35

35:                                               ; preds = %19
  %36 = load i32, ptr %3, align 4
  %37 = add nsw i32 %36, 1
  store i32 %37, ptr %3, align 4
  br label %13, !llvm.loop !14

38:                                               ; preds = %13
  br label %39

39:                                               ; preds = %38
  %40 = load i32, ptr %2, align 4
  %41 = add nsw i32 %40, 1
  store i32 %41, ptr %2, align 4
  br label %4, !llvm.loop !15

42:                                               ; preds = %4
  call void @slurm_xfree(ptr noundef @kvs_hash)
  call void @llvm.lifetime.end.p0(i64 4, ptr %3) #7
  call void @llvm.lifetime.end.p0(i64 4, ptr %2) #7
  call void @llvm.lifetime.end.p0(i64 8, ptr %1) #7
  ret i32 0
}