; Function Attrs: nounwind uwtable
define dso_local noundef i32 @kvs_clear() local_unnamed_addr #0 {
  %1 = load i32, ptr @hash_size, align 4
  %.not = icmp eq i32 %1, 0
  br i1 %.not, label %._crit_edge14, label %.lr.ph13

.lr.ph13:                                         ; preds = %0, %._crit_edge
  %2 = phi i32 [ %16, %._crit_edge ], [ %1, %0 ]
  %indvars.iv17 = phi i64 [ %indvars.iv.next18, %._crit_edge ], [ 0, %0 ]
  %3 = load ptr, ptr @kvs_hash, align 8
  %4 = getelementptr inbounds nuw %struct.kvs_bucket, ptr %3, i64 %indvars.iv17
  %5 = getelementptr inbounds nuw i8, ptr %4, i64 8
  %6 = load i32, ptr %5, align 8
  %.not15 = icmp eq i32 %6, 0
  br i1 %.not15, label %._crit_edge, label %.lr.ph

.lr.ph:                                           ; preds = %.lr.ph13, %.lr.ph
  %indvars.iv = phi i64 [ %indvars.iv.next, %.lr.ph ], [ 0, %.lr.ph13 ]
  %7 = load ptr, ptr %4, align 8
  %8 = shl nuw nsw i64 %indvars.iv, 1
  %9 = getelementptr inbounds nuw ptr, ptr %7, i64 %8
  tail call void @slurm_xfree(ptr noundef %9) #6
  %10 = load ptr, ptr %4, align 8
  %11 = or disjoint i64 %8, 1
  %12 = getelementptr inbounds nuw ptr, ptr %10, i64 %11
  tail call void @slurm_xfree(ptr noundef nonnull %12) #6
  %indvars.iv.next = add nuw nsw i64 %indvars.iv, 1
  %13 = load i32, ptr %5, align 8
  %14 = zext i32 %13 to i64
  %15 = icmp samesign ult i64 %indvars.iv.next, %14
  br i1 %15, label %.lr.ph, label %._crit_edge.loopexit, !llvm.loop !14

._crit_edge.loopexit:                             ; preds = %.lr.ph
  %.pre = load i32, ptr @hash_size, align 4
  br label %._crit_edge

._crit_edge:                                      ; preds = %._crit_edge.loopexit, %.lr.ph13
  %16 = phi i32 [ %.pre, %._crit_edge.loopexit ], [ %2, %.lr.ph13 ]
  %indvars.iv.next18 = add nuw nsw i64 %indvars.iv17, 1
  %17 = zext i32 %16 to i64
  %18 = icmp samesign ult i64 %indvars.iv.next18, %17
  br i1 %18, label %.lr.ph13, label %._crit_edge14, !llvm.loop !15

._crit_edge14:                                    ; preds = %._crit_edge, %0
  tail call void @slurm_xfree(ptr noundef nonnull @kvs_hash) #6
  ret i32 0
}